target datalayout = "e-m:e-p270:32:32-p271:32:32-p272:64:64-i64:64-i128:128-f80:128-n8:16:32:64-S128"
target triple = "x86_64-unknown-linux-gnu"

%class.mpf = type { i32, %class.mpz, i64 }
%class.mpz = type { i32, i8, ptr }

; Function Attrs: mustprogress nounwind uwtable
define hidden void @_ZN3mpf3setEjj(ptr noundef nonnull align 8 dereferenceable(32) %this, i32 noundef %_ebits, i32 noundef %_sbits) #5 align 2 {
entry:
  %this.addr = alloca ptr, align 8
  %_ebits.addr = alloca i32, align 4
  %_sbits.addr = alloca i32, align 4
  store ptr %this, ptr %this.addr, align 8
  store i32 %_ebits, ptr %_ebits.addr, align 4
  store i32 %_sbits, ptr %_sbits.addr, align 4
  %this1 = load ptr, ptr %this.addr, align 8
  %0 = load i32, ptr %_ebits.addr, align 4
  %bf.load = load i32, ptr %this1, align 8
  %bf.value = and i32 %0, 32767
  %bf.clear = and i32 %bf.load, -32768
  %bf.set = or i32 %bf.clear, %bf.value
  store i32 %bf.set, ptr %this1, align 8
  %1 = load i32, ptr %_sbits.addr, align 4
  %bf.load2 = load i32, ptr %this1, align 8
  %bf.value3 = and i32 %1, 65535
  %bf.shl = shl i32 %bf.value3, 15
  %bf.clear4 = and i32 %bf.load2, -2147450881
  %bf.set5 = or i32 %bf.clear4, %bf.shl
  store i32 %bf.set5, ptr %this1, align 8
  %bf.load6 = load i32, ptr %this1, align 8
  %bf.clear7 = and i32 %bf.load6, 2147483647
  %bf.set8 = or i32 %bf.clear7, 0
  store i32 %bf.set8, ptr %this1, align 8
  %exponent = getelementptr inbounds %class.mpf, ptr %this1, i32 0, i32 2
  store i64 0, ptr %exponent, align 8
  ret void
}

; Function Attrs: mustprogress nounwind uwtable
define linkonce_odr hidden void @_ZN3mpzC2Ei(ptr noundef nonnull align 8 dereferenceable(16) %this, i32 noundef %v) unnamed_addr #5 comdat align 2 {
entry:
  %this.addr = alloca ptr, align 8
  %v.addr = alloca i32, align 4
  store ptr %this, ptr %this.addr, align 8
  store i32 %v, ptr %v.addr, align 4
  %this1 = load ptr, ptr %this.addr, align 8
  %m_val = getelementptr inbounds %class.mpz, ptr %this1, i32 0, i32 0
  %0 = load i32, ptr %v.addr, align 4
  store i32 %0, ptr %m_val, align 8
  %m_kind = getelementptr inbounds %class.mpz, ptr %this1, i32 0, i32 1
  %bf.load = load i8, ptr %m_kind, align 4
  %bf.clear = and i8 %bf.load, -2
  %bf.set = or i8 %bf.clear, 0
  store i8 %bf.set, ptr %m_kind, align 4
  %m_owner = getelementptr inbounds %class.mpz, ptr %this1, i32 0, i32 1
  %bf.load2 = load i8, ptr %m_owner, align 4
  %bf.clear3 = and i8 %bf.load2, -3
  %bf.set4 = or i8 %bf.clear3, 0
  store i8 %bf.set4, ptr %m_owner, align 4
  %m_ptr = getelementptr inbounds %class.mpz, ptr %this1, i32 0, i32 2
  store ptr null, ptr %m_ptr, align 8
  ret void
}

; Function Attrs: mustprogress uwtable
define hidden void @_ZN3mpfC2Ejj(ptr noundef nonnull align 8 dereferenceable(32) %this, i32 noundef %_ebits, i32 noundef %_sbits) unnamed_addr #4 align 2 {
entry:
  %this.addr = alloca ptr, align 8
  %_ebits.addr = alloca i32, align 4
  %_sbits.addr = alloca i32, align 4
  store ptr %this, ptr %this.addr, align 8
  store i32 %_ebits, ptr %_ebits.addr, align 4
  store i32 %_sbits, ptr %_sbits.addr, align 4
  %this1 = load ptr, ptr %this.addr, align 8
  %significand = getelementptr inbounds %class.mpf, ptr %this1, i32 0, i32 1
  call void @_ZN3mpzC2Ei(ptr noundef nonnull align 8 dereferenceable(16) %significand, i32 noundef 0)
  %bf.load = load i32, ptr %this1, align 8
  %bf.clear = and i32 %bf.load, 32767
  %bf.load2 = load i32, ptr %this1, align 8
  %bf.lshr = lshr i32 %bf.load2, 15
  %bf.clear3 = and i32 %bf.lshr, 65535
  call void @_ZN3mpf3setEjj(ptr noundef nonnull align 8 dereferenceable(32) %this1, i32 noundef %bf.clear, i32 noundef %bf.clear3)
  ret void
}