; Function Attrs: mustprogress nofree norecurse nosync nounwind willreturn memory(argmem: readwrite) uwtable
define hidden void @_ZN3mpfC2Ejj(ptr nocapture noundef nonnull align 8 dereferenceable(32) %this, i32 %_ebits, i32 %_sbits) unnamed_addr #3 align 2 {
entry:
  %significand = getelementptr inbounds i8, ptr %this, i64 8
  store i32 0, ptr %significand, align 8
  %m_kind.i = getelementptr inbounds i8, ptr %this, i64 12
  %bf.load.i = load i8, ptr %m_kind.i, align 4
  %bf.clear3.i = and i8 %bf.load.i, -4
  store i8 %bf.clear3.i, ptr %m_kind.i, align 4
  %m_ptr.i = getelementptr inbounds i8, ptr %this, i64 16
  store ptr null, ptr %m_ptr.i, align 8
  %bf.load = load i32, ptr %this, align 8
  %bf.clear7.i = and i32 %bf.load, 2147483647
  store i32 %bf.clear7.i, ptr %this, align 8
  %exponent.i = getelementptr inbounds i8, ptr %this, i64 24
  store i64 0, ptr %exponent.i, align 8
  ret void
}